; Function Attrs: mustprogress nounwind uwtable
define internal fastcc noundef ptr @_ZN12_GLOBAL__N_119AllocaSliceRewriter20getNewAllocaSlicePtrERN4llvm9IRBuilderINS1_14ConstantFolderENS_25IRBuilderPrefixedInserterEEEPNS1_4TypeE(ptr nocapture noundef nonnull readonly align 8 dereferenceable(352) %0, ptr noundef nonnull align 8 dereferenceable(176) %1, ptr noundef %2) unnamed_addr #0 align 2 {
  %4 = alloca %"class.llvm::APInt", align 8
  %5 = alloca %"class.llvm::Twine", align 8
  %6 = getelementptr inbounds nuw i8, ptr %0, i64 112
  %7 = load i64, ptr %6, align 8
  %8 = getelementptr inbounds nuw i8, ptr %0, i64 40
  %9 = load i64, ptr %8, align 8
  %10 = sub i64 %7, %9
  %11 = load ptr, ptr %0, align 8
  %12 = getelementptr inbounds nuw i8, ptr %0, i64 32
  %13 = load ptr, ptr %12, align 8
  %14 = tail call noundef i32 @_ZNK4llvm10DataLayout22getIndexTypeSizeInBitsEPNS_4TypeE(ptr noundef nonnull align 8 dereferenceable(512) %11, ptr noundef %2) #25
  %15 = getelementptr inbounds nuw i8, ptr %4, i64 8
  store i32 %14, ptr %15, align 8
  %16 = icmp ult i32 %14, 65
  br i1 %16, label %17, label %25

17:                                               ; preds = %3
  %18 = add nuw nsw i32 %14, 63
  %19 = and i32 %18, 63
  %20 = xor i32 %19, 63
  %21 = zext nneg i32 %20 to i64
  %22 = lshr i64 -1, %21
  %23 = icmp eq i32 %14, 0
  %spec.store.select.i.i = select i1 %23, i64 0, i64 %22
  %24 = and i64 %spec.store.select.i.i, %10
  store i64 %24, ptr %4, align 8
  br label %_ZN4llvm5APIntC2Ejmbb.exit

25:                                               ; preds = %3
  call void @_ZN4llvm5APInt12initSlowCaseEmb(ptr noundef nonnull align 8 dereferenceable(12) %4, i64 noundef %10, i1 noundef zeroext false) #25
  br label %_ZN4llvm5APIntC2Ejmbb.exit

_ZN4llvm5APIntC2Ejmbb.exit:                       ; preds = %17, %25
  %26 = getelementptr inbounds nuw i8, ptr %5, i64 32
  store i8 1, ptr %26, align 8
  %27 = getelementptr inbounds nuw i8, ptr %5, i64 33
  store i8 1, ptr %27, align 1
  %28 = call fastcc noundef ptr @_ZL14getAdjustedPtrRN4llvm9IRBuilderINS_14ConstantFolderEN12_GLOBAL__N_125IRBuilderPrefixedInserterEEERKNS_10DataLayoutEPNS_5ValueENS_5APIntEPNS_4TypeERKNS_5TwineE(ptr noundef nonnull align 8 dereferenceable(176) %1, ptr noundef %13, ptr noundef nonnull %4, ptr noundef %2, ptr noundef nonnull align 8 dereferenceable(34) %5)
  %29 = load i32, ptr %15, align 8
  %30 = icmp ugt i32 %29, 64
  br i1 %30, label %31, label %_ZN4llvm5APIntD2Ev.exit

31:                                               ; preds = %_ZN4llvm5APIntC2Ejmbb.exit
  %32 = load ptr, ptr %4, align 8
  %33 = icmp eq ptr %32, null
  br i1 %33, label %_ZN4llvm5APIntD2Ev.exit, label %34

34:                                               ; preds = %31
  call void @_ZdaPv(ptr noundef nonnull %32) #26
  br label %_ZN4llvm5APIntD2Ev.exit

_ZN4llvm5APIntD2Ev.exit:                          ; preds = %_ZN4llvm5APIntC2Ejmbb.exit, %31, %34
  ret ptr %28
}